target datalayout = "e-m:e-p270:32:32-p271:32:32-p272:64:64-i64:64-i128:128-f80:128-n8:16:32:64-S128"
target triple = "x86_64-pc-linux-gnu"

%struct._object = type { %union.anon, ptr }
%union.anon = type { i64 }
%struct.Py_complex = type { double, double }
%struct.PyComplexObject = type { %struct._object, %struct.Py_complex }

; Function Attrs: nounwind uwtable
define internal i32 @complex_bool(ptr noundef %0) #0 {
  %2 = alloca ptr, align 8
  %3 = alloca ptr, align 8
  store ptr %0, ptr %2, align 8, !tbaa !16
  call void @llvm.lifetime.start.p0(i64 8, ptr %3) #9
  %4 = load ptr, ptr %2, align 8, !tbaa !16
  store ptr %4, ptr %3, align 8, !tbaa !14
  %5 = load ptr, ptr %3, align 8, !tbaa !14
  %6 = getelementptr inbounds nuw %struct.PyComplexObject, ptr %5, i32 0, i32 1
  %7 = getelementptr inbounds nuw %struct.Py_complex, ptr %6, i32 0, i32 0
  %8 = load double, ptr %7, align 8, !tbaa !20
  %9 = fcmp une double %8, 0.000000e+00
  br i1 %9, label %16, label %10

10:                                               ; preds = %1
  %11 = load ptr, ptr %3, align 8, !tbaa !14
  %12 = getelementptr inbounds nuw %struct.PyComplexObject, ptr %11, i32 0, i32 1
  %13 = getelementptr inbounds nuw %struct.Py_complex, ptr %12, i32 0, i32 1
  %14 = load double, ptr %13, align 8, !tbaa !33
  %15 = fcmp une double %14, 0.000000e+00
  br label %16

16:                                               ; preds = %10, %1
  %17 = phi i1 [ true, %1 ], [ %15, %10 ]
  %18 = zext i1 %17 to i32
  call void @llvm.lifetime.end.p0(i64 8, ptr %3) #9
  ret i32 %18
}