; Function Attrs: mustprogress nofree norecurse nosync nounwind willreturn memory(argmem: read) uwtable
define internal range(i32 0, 2) i32 @complex_bool(ptr noundef readonly captures(none) %0) #11 {
  %2 = getelementptr inbounds nuw i8, ptr %0, i64 16
  %3 = load double, ptr %2, align 8, !tbaa !15
  %4 = fcmp une double %3, 0.000000e+00
  br i1 %4, label %10, label %5

5:                                                ; preds = %1
  %6 = getelementptr inbounds nuw i8, ptr %0, i64 24
  %7 = load double, ptr %6, align 8, !tbaa !33
  %8 = fcmp une double %7, 0.000000e+00
  %9 = zext i1 %8 to i32
  br label %10

10:                                               ; preds = %5, %1
  %11 = phi i32 [ 1, %1 ], [ %9, %5 ]
  ret i32 %11
}